(dp0
S'threshold_value'
p1
S'all_values'
p2
sS'user_ref'
p3
NsS'genotype'
p4
S'1b'
p5
sS'paired_end_mapping'
p6
I00
sS'reads_processed'
p7
S'52_S51_L001_R1_001.fastq'
p8
sS'reads_reversed'
p9
NsS'reads_forward'
p10
NsS'working_directory'
p11
S'./'
p12
sS'reads_folder'
p13
S'52'
p14
sS'batching'
p15
S'100'
p16
sS'gene'
p17
S'NS5B'
p18
sS'processors'
p19
I1
s.